target datalayout = "e-m:e-p270:32:32-p271:32:32-p272:64:64-i64:64-i128:128-f80:128-n8:16:32:64-S128"
target triple = "x86_64-pc-linux-gnu"

%struct._object = type { %union.anon, ptr }
%union.anon = type { i64 }
%struct.PyMutex = type { i8 }
%struct._queues = type { ptr, ptr, i64, i64 }
%struct._longobject = type { %struct._object, %struct._PyLongValue }
%struct._PyLongValue = type { i64, [1 x i32] }
%struct.idarg_int64_converter_data = type { ptr, i64 }
%struct.globals = type { %struct.PyMutex, i32, %struct._queues }
%struct._queue = type { i64, ptr, i32, %struct._queueitems, %struct.anon.0 }
%struct._queueitems = type { i64, i64, ptr, ptr }
%struct.anon.0 = type { i32, i32 }
%struct._queueref = type { ptr, i64, i64, ptr }

@_globals = internal global { %struct.PyMutex, [3 x i8], i32, %struct._queues } zeroinitializer, align 8
@queuesmod_is_full.kwlist = internal global [2 x ptr] [ptr @.str.28, ptr null], align 16
@.str.46 = private unnamed_addr constant [11 x i8] c"O&:is_full\00", align 1
@_Py_TrueStruct = external global %struct._longobject, align 8
@_Py_FalseStruct = external global %struct._longobject, align 8

; Function Attrs: nounwind uwtable
define internal void @_queue_unlock(ptr noundef %0) #0 {
  %2 = alloca ptr, align 8
  store ptr %0, ptr %2, align 8, !tbaa !26
  %3 = load ptr, ptr %2, align 8, !tbaa !26
  %4 = getelementptr inbounds nuw %struct._queue, ptr %3, i32 0, i32 1
  %5 = load ptr, ptr %4, align 8, !tbaa !42
  call void @PyThread_release_lock(ptr noundef %5)
  ret void
}

; Function Attrs: nounwind uwtable
define internal i32 @_queue_lock(ptr noundef %0) #0 {
  %2 = alloca i32, align 4
  %3 = alloca ptr, align 8
  store ptr %0, ptr %3, align 8, !tbaa !26
  %4 = load ptr, ptr %3, align 8, !tbaa !26
  %5 = getelementptr inbounds nuw %struct._queue, ptr %4, i32 0, i32 1
  %6 = load ptr, ptr %5, align 8, !tbaa !42
  %7 = call i32 @PyThread_acquire_lock(ptr noundef %6, i32 noundef 1)
  %8 = load ptr, ptr %3, align 8, !tbaa !26
  %9 = getelementptr inbounds nuw %struct._queue, ptr %8, i32 0, i32 2
  %10 = load i32, ptr %9, align 8, !tbaa !43
  %11 = icmp ne i32 %10, 0
  br i1 %11, label %16, label %12

12:                                               ; preds = %1
  %13 = load ptr, ptr %3, align 8, !tbaa !26
  %14 = getelementptr inbounds nuw %struct._queue, ptr %13, i32 0, i32 1
  %15 = load ptr, ptr %14, align 8, !tbaa !42
  call void @PyThread_release_lock(ptr noundef %15)
  store i32 -14, ptr %2, align 4
  br label %17

16:                                               ; preds = %1
  store i32 0, ptr %2, align 4
  br label %17

17:                                               ; preds = %16, %12
  %18 = load i32, ptr %2, align 4
  ret i32 %18
}

; Function Attrs: nounwind uwtable
define internal void @_queue_mark_waiter(ptr noundef %0, ptr noundef %1) #0 {
  %3 = alloca ptr, align 8
  %4 = alloca ptr, align 8
  store ptr %0, ptr %3, align 8, !tbaa !26
  store ptr %1, ptr %4, align 8, !tbaa !8
  %5 = load ptr, ptr %4, align 8, !tbaa !8
  %6 = icmp ne ptr %5, null
  br i1 %6, label %7, label %15

7:                                                ; preds = %2
  %8 = load ptr, ptr %4, align 8, !tbaa !8
  %9 = call i32 @PyThread_acquire_lock(ptr noundef %8, i32 noundef 1)
  %10 = load ptr, ptr %3, align 8, !tbaa !26
  %11 = getelementptr inbounds nuw %struct._queue, ptr %10, i32 0, i32 0
  %12 = load i64, ptr %11, align 8, !tbaa !41
  %13 = add i64 %12, 1
  store i64 %13, ptr %11, align 8, !tbaa !41
  %14 = load ptr, ptr %4, align 8, !tbaa !8
  call void @PyThread_release_lock(ptr noundef %14)
  br label %20

15:                                               ; preds = %2
  %16 = load ptr, ptr %3, align 8, !tbaa !26
  %17 = getelementptr inbounds nuw %struct._queue, ptr %16, i32 0, i32 0
  %18 = load i64, ptr %17, align 8, !tbaa !41
  %19 = add i64 %18, 1
  store i64 %19, ptr %17, align 8, !tbaa !41
  br label %20

20:                                               ; preds = %15, %7
  ret void
}

; Function Attrs: nounwind uwtable
define internal ptr @_queuerefs_find(ptr noundef %0, i64 noundef %1, ptr noundef %2) #0 {
  %4 = alloca ptr, align 8
  %5 = alloca i64, align 8
  %6 = alloca ptr, align 8
  %7 = alloca ptr, align 8
  %8 = alloca ptr, align 8
  store ptr %0, ptr %4, align 8, !tbaa !50
  store i64 %1, ptr %5, align 8, !tbaa !11
  store ptr %2, ptr %6, align 8, !tbaa !77
  call void @llvm.lifetime.start.p0(i64 8, ptr %7) #8
  store ptr null, ptr %7, align 8, !tbaa !50
  call void @llvm.lifetime.start.p0(i64 8, ptr %8) #8
  %9 = load ptr, ptr %4, align 8, !tbaa !50
  store ptr %9, ptr %8, align 8, !tbaa !50
  br label %10

10:                                               ; preds = %20, %3
  %11 = load ptr, ptr %8, align 8, !tbaa !50
  %12 = icmp ne ptr %11, null
  br i1 %12, label %13, label %25

13:                                               ; preds = %10
  %14 = load ptr, ptr %8, align 8, !tbaa !50
  %15 = getelementptr inbounds nuw %struct._queueref, ptr %14, i32 0, i32 1
  %16 = load i64, ptr %15, align 8, !tbaa !53
  %17 = load i64, ptr %5, align 8, !tbaa !11
  %18 = icmp eq i64 %16, %17
  br i1 %18, label %19, label %20

19:                                               ; preds = %13
  br label %25

20:                                               ; preds = %13
  %21 = load ptr, ptr %8, align 8, !tbaa !50
  store ptr %21, ptr %7, align 8, !tbaa !50
  %22 = load ptr, ptr %8, align 8, !tbaa !50
  %23 = getelementptr inbounds nuw %struct._queueref, ptr %22, i32 0, i32 0
  %24 = load ptr, ptr %23, align 8, !tbaa !51
  store ptr %24, ptr %8, align 8, !tbaa !50
  br label %10, !llvm.loop !79

25:                                               ; preds = %19, %10
  %26 = load ptr, ptr %6, align 8, !tbaa !77
  %27 = icmp ne ptr %26, null
  br i1 %27, label %28, label %31

28:                                               ; preds = %25
  %29 = load ptr, ptr %7, align 8, !tbaa !50
  %30 = load ptr, ptr %6, align 8, !tbaa !77
  store ptr %29, ptr %30, align 8, !tbaa !50
  br label %31

31:                                               ; preds = %28, %25
  %32 = load ptr, ptr %8, align 8, !tbaa !50
  call void @llvm.lifetime.end.p0(i64 8, ptr %8) #8
  call void @llvm.lifetime.end.p0(i64 8, ptr %7) #8
  ret ptr %32
}

; Function Attrs: nounwind uwtable
define internal void @_queue_unmark_waiter(ptr noundef %0, ptr noundef %1) #0 {
  %3 = alloca ptr, align 8
  %4 = alloca ptr, align 8
  store ptr %0, ptr %3, align 8, !tbaa !26
  store ptr %1, ptr %4, align 8, !tbaa !8
  %5 = load ptr, ptr %4, align 8, !tbaa !8
  %6 = icmp ne ptr %5, null
  br i1 %6, label %7, label %15

7:                                                ; preds = %2
  %8 = load ptr, ptr %4, align 8, !tbaa !8
  %9 = call i32 @PyThread_acquire_lock(ptr noundef %8, i32 noundef 1)
  %10 = load ptr, ptr %3, align 8, !tbaa !26
  %11 = getelementptr inbounds nuw %struct._queue, ptr %10, i32 0, i32 0
  %12 = load i64, ptr %11, align 8, !tbaa !41
  %13 = sub i64 %12, 1
  store i64 %13, ptr %11, align 8, !tbaa !41
  %14 = load ptr, ptr %4, align 8, !tbaa !8
  call void @PyThread_release_lock(ptr noundef %14)
  br label %20

15:                                               ; preds = %2
  %16 = load ptr, ptr %3, align 8, !tbaa !26
  %17 = getelementptr inbounds nuw %struct._queue, ptr %16, i32 0, i32 0
  %18 = load i64, ptr %17, align 8, !tbaa !41
  %19 = sub i64 %18, 1
  store i64 %19, ptr %17, align 8, !tbaa !41
  br label %20

20:                                               ; preds = %15, %7
  ret void
}

; Function Attrs: nounwind uwtable
define internal i32 @_queue_is_full(ptr noundef %0, ptr noundef %1) #0 {
  %3 = alloca i32, align 4
  %4 = alloca ptr, align 8
  %5 = alloca ptr, align 8
  %6 = alloca i32, align 4
  %7 = alloca i32, align 4
  store ptr %0, ptr %4, align 8, !tbaa !26
  store ptr %1, ptr %5, align 8, !tbaa !109
  call void @llvm.lifetime.start.p0(i64 4, ptr %6) #8
  %8 = load ptr, ptr %4, align 8, !tbaa !26
  %9 = call i32 @_queue_lock(ptr noundef %8)
  store i32 %9, ptr %6, align 4, !tbaa !9
  %10 = load i32, ptr %6, align 4, !tbaa !9
  %11 = icmp slt i32 %10, 0
  br i1 %11, label %12, label %14

12:                                               ; preds = %2
  %13 = load i32, ptr %6, align 4, !tbaa !9
  store i32 %13, ptr %3, align 4
  store i32 1, ptr %7, align 4
  br label %27

14:                                               ; preds = %2
  %15 = load ptr, ptr %4, align 8, !tbaa !26
  %16 = getelementptr inbounds nuw %struct._queue, ptr %15, i32 0, i32 3
  %17 = getelementptr inbounds nuw %struct._queueitems, ptr %16, i32 0, i32 1
  %18 = load i64, ptr %17, align 8, !tbaa !101
  %19 = load ptr, ptr %4, align 8, !tbaa !26
  %20 = getelementptr inbounds nuw %struct._queue, ptr %19, i32 0, i32 3
  %21 = getelementptr inbounds nuw %struct._queueitems, ptr %20, i32 0, i32 0
  %22 = load i64, ptr %21, align 8, !tbaa !100
  %23 = icmp eq i64 %18, %22
  %24 = zext i1 %23 to i32
  %25 = load ptr, ptr %5, align 8, !tbaa !109
  store i32 %24, ptr %25, align 4, !tbaa !9
  %26 = load ptr, ptr %4, align 8, !tbaa !26
  call void @_queue_unlock(ptr noundef %26)
  store i32 0, ptr %3, align 4
  store i32 1, ptr %7, align 4
  br label %27

27:                                               ; preds = %14, %12
  call void @llvm.lifetime.end.p0(i64 4, ptr %6) #8
  %28 = load i32, ptr %3, align 4
  ret i32 %28
}

; Function Attrs: nounwind uwtable
define internal i32 @_queues_lookup(ptr noundef %0, i64 noundef %1, ptr noundef %2) #0 {
  %4 = alloca i32, align 4
  %5 = alloca ptr, align 8
  %6 = alloca i64, align 8
  %7 = alloca ptr, align 8
  %8 = alloca ptr, align 8
  %9 = alloca i32, align 4
  %10 = alloca ptr, align 8
  store ptr %0, ptr %5, align 8, !tbaa !39
  store i64 %1, ptr %6, align 8, !tbaa !11
  store ptr %2, ptr %7, align 8, !tbaa !74
  %11 = load ptr, ptr %5, align 8, !tbaa !39
  %12 = getelementptr inbounds nuw %struct._queues, ptr %11, i32 0, i32 0
  %13 = load ptr, ptr %12, align 8, !tbaa !49
  %14 = call i32 @PyThread_acquire_lock(ptr noundef %13, i32 noundef 1)
  call void @llvm.lifetime.start.p0(i64 8, ptr %8) #8
  %15 = load ptr, ptr %5, align 8, !tbaa !39
  %16 = getelementptr inbounds nuw %struct._queues, ptr %15, i32 0, i32 1
  %17 = load ptr, ptr %16, align 8, !tbaa !57
  %18 = load i64, ptr %6, align 8, !tbaa !11
  %19 = call ptr @_queuerefs_find(ptr noundef %17, i64 noundef %18, ptr noundef null)
  store ptr %19, ptr %8, align 8, !tbaa !50
  %20 = load ptr, ptr %8, align 8, !tbaa !50
  %21 = icmp eq ptr %20, null
  br i1 %21, label %22, label %26

22:                                               ; preds = %3
  %23 = load ptr, ptr %5, align 8, !tbaa !39
  %24 = getelementptr inbounds nuw %struct._queues, ptr %23, i32 0, i32 0
  %25 = load ptr, ptr %24, align 8, !tbaa !49
  call void @PyThread_release_lock(ptr noundef %25)
  store i32 -14, ptr %4, align 4
  store i32 1, ptr %9, align 4
  br label %36

26:                                               ; preds = %3
  call void @llvm.lifetime.start.p0(i64 8, ptr %10) #8
  %27 = load ptr, ptr %8, align 8, !tbaa !50
  %28 = getelementptr inbounds nuw %struct._queueref, ptr %27, i32 0, i32 3
  %29 = load ptr, ptr %28, align 8, !tbaa !55
  store ptr %29, ptr %10, align 8, !tbaa !26
  %30 = load ptr, ptr %10, align 8, !tbaa !26
  call void @_queue_mark_waiter(ptr noundef %30, ptr noundef null)
  %31 = load ptr, ptr %5, align 8, !tbaa !39
  %32 = getelementptr inbounds nuw %struct._queues, ptr %31, i32 0, i32 0
  %33 = load ptr, ptr %32, align 8, !tbaa !49
  call void @PyThread_release_lock(ptr noundef %33)
  %34 = load ptr, ptr %10, align 8, !tbaa !26
  %35 = load ptr, ptr %7, align 8, !tbaa !74
  store ptr %34, ptr %35, align 8, !tbaa !26
  store i32 0, ptr %4, align 4
  store i32 1, ptr %9, align 4
  call void @llvm.lifetime.end.p0(i64 8, ptr %10) #8
  br label %36

36:                                               ; preds = %26, %22
  call void @llvm.lifetime.end.p0(i64 8, ptr %8) #8
  %37 = load i32, ptr %4, align 4
  ret i32 %37
}

; Function Attrs: nounwind uwtable
define internal i32 @queue_is_full(ptr noundef %0, i64 noundef %1, ptr noundef %2) #0 {
  %4 = alloca i32, align 4
  %5 = alloca ptr, align 8
  %6 = alloca i64, align 8
  %7 = alloca ptr, align 8
  %8 = alloca ptr, align 8
  %9 = alloca i32, align 4
  %10 = alloca i32, align 4
  store ptr %0, ptr %5, align 8, !tbaa !39
  store i64 %1, ptr %6, align 8, !tbaa !11
  store ptr %2, ptr %7, align 8, !tbaa !109
  call void @llvm.lifetime.start.p0(i64 8, ptr %8) #8
  store ptr null, ptr %8, align 8, !tbaa !26
  call void @llvm.lifetime.start.p0(i64 4, ptr %9) #8
  %11 = load ptr, ptr %5, align 8, !tbaa !39
  %12 = load i64, ptr %6, align 8, !tbaa !11
  %13 = call i32 @_queues_lookup(ptr noundef %11, i64 noundef %12, ptr noundef %8)
  store i32 %13, ptr %9, align 4, !tbaa !9
  %14 = load i32, ptr %9, align 4, !tbaa !9
  %15 = icmp slt i32 %14, 0
  br i1 %15, label %16, label %18

16:                                               ; preds = %3
  %17 = load i32, ptr %9, align 4, !tbaa !9
  store i32 %17, ptr %4, align 4
  store i32 1, ptr %10, align 4
  br label %27

18:                                               ; preds = %3
  %19 = load ptr, ptr %8, align 8, !tbaa !26
  %20 = load ptr, ptr %7, align 8, !tbaa !109
  %21 = call i32 @_queue_is_full(ptr noundef %19, ptr noundef %20)
  store i32 %21, ptr %9, align 4, !tbaa !9
  %22 = load ptr, ptr %8, align 8, !tbaa !26
  %23 = load ptr, ptr %5, align 8, !tbaa !39
  %24 = getelementptr inbounds nuw %struct._queues, ptr %23, i32 0, i32 0
  %25 = load ptr, ptr %24, align 8, !tbaa !49
  call void @_queue_unmark_waiter(ptr noundef %22, ptr noundef %25)
  %26 = load i32, ptr %9, align 4, !tbaa !9
  store i32 %26, ptr %4, align 4
  store i32 1, ptr %10, align 4
  br label %27

27:                                               ; preds = %18, %16
  call void @llvm.lifetime.end.p0(i64 4, ptr %9) #8
  call void @llvm.lifetime.end.p0(i64 8, ptr %8) #8
  %28 = load i32, ptr %4, align 4
  ret i32 %28
}

; Function Attrs: nounwind uwtable
define internal ptr @queuesmod_is_full(ptr noundef %0, ptr noundef %1, ptr noundef %2) #0 {
  %4 = alloca ptr, align 8
  %5 = alloca ptr, align 8
  %6 = alloca ptr, align 8
  %7 = alloca ptr, align 8
  %8 = alloca %struct.idarg_int64_converter_data, align 8
  %9 = alloca i32, align 4
  %10 = alloca i64, align 8
  %11 = alloca i32, align 4
  %12 = alloca i32, align 4
  store ptr %0, ptr %5, align 8, !tbaa !3
  store ptr %1, ptr %6, align 8, !tbaa !3
  store ptr %2, ptr %7, align 8, !tbaa !3
  call void @llvm.lifetime.start.p0(i64 16, ptr %8) #8
  call void @llvm.memset.p0.i64(ptr align 8 %8, i8 0, i64 16, i1 false)
  %13 = load ptr, ptr %6, align 8, !tbaa !3
  %14 = load ptr, ptr %7, align 8, !tbaa !3
  %15 = call i32 (ptr, ptr, ptr, ptr, ...) @PyArg_ParseTupleAndKeywords(ptr noundef %13, ptr noundef %14, ptr noundef @.str.46, ptr noundef @queuesmod_is_full.kwlist, ptr noundef @qidarg_converter, ptr noundef %8)
  %16 = icmp ne i32 %15, 0
  br i1 %16, label %18, label %17

17:                                               ; preds = %3
  store ptr null, ptr %4, align 8
  store i32 1, ptr %9, align 4
  br label %35

18:                                               ; preds = %3
  call void @llvm.lifetime.start.p0(i64 8, ptr %10) #8
  %19 = getelementptr inbounds nuw %struct.idarg_int64_converter_data, ptr %8, i32 0, i32 1
  %20 = load i64, ptr %19, align 8, !tbaa !13
  store i64 %20, ptr %10, align 8, !tbaa !11
  call void @llvm.lifetime.start.p0(i64 4, ptr %11) #8
  store i32 0, ptr %11, align 4, !tbaa !9
  call void @llvm.lifetime.start.p0(i64 4, ptr %12) #8
  %21 = load i64, ptr %10, align 8, !tbaa !11
  %22 = call i32 @queue_is_full(ptr noundef getelementptr inbounds nuw (%struct.globals, ptr @_globals, i32 0, i32 2), i64 noundef %21, ptr noundef %11)
  store i32 %22, ptr %12, align 4, !tbaa !9
  %23 = load i32, ptr %12, align 4, !tbaa !9
  %24 = load ptr, ptr %5, align 8, !tbaa !3
  %25 = load i64, ptr %10, align 8, !tbaa !11
  %26 = call i32 @handle_queue_error(i32 noundef %23, ptr noundef %24, i64 noundef %25)
  %27 = icmp ne i32 %26, 0
  br i1 %27, label %28, label %29

28:                                               ; preds = %18
  store ptr null, ptr %4, align 8
  store i32 1, ptr %9, align 4
  br label %34

29:                                               ; preds = %18
  %30 = load i32, ptr %11, align 4, !tbaa !9
  %31 = icmp ne i32 %30, 0
  br i1 %31, label %32, label %33

32:                                               ; preds = %29
  store ptr @_Py_TrueStruct, ptr %4, align 8
  store i32 1, ptr %9, align 4
  br label %34

33:                                               ; preds = %29
  store ptr @_Py_FalseStruct, ptr %4, align 8
  store i32 1, ptr %9, align 4
  br label %34

34:                                               ; preds = %33, %32, %28
  call void @llvm.lifetime.end.p0(i64 4, ptr %12) #8
  call void @llvm.lifetime.end.p0(i64 4, ptr %11) #8
  call void @llvm.lifetime.end.p0(i64 8, ptr %10) #8
  br label %35

35:                                               ; preds = %34, %17
  call void @llvm.lifetime.end.p0(i64 16, ptr %8) #8
  %36 = load ptr, ptr %4, align 8
  ret ptr %36
}