; Function Attrs: nounwind uwtable
define internal ptr @queuesmod_is_full(ptr noundef %0, ptr noundef %1, ptr noundef %2) #0 {
  %4 = alloca %struct.idarg_int64_converter_data, align 8
  call void @llvm.lifetime.start.p0(i64 16, ptr nonnull %4) #6
  call void @llvm.memset.p0.i64(ptr noundef nonnull align 8 dereferenceable(16) %4, i8 0, i64 16, i1 false)
  %5 = call i32 (ptr, ptr, ptr, ptr, ...) @PyArg_ParseTupleAndKeywords(ptr noundef %1, ptr noundef %2, ptr noundef nonnull @.str.46, ptr noundef nonnull @queuesmod_is_full.kwlist, ptr noundef nonnull @qidarg_converter, ptr noundef nonnull %4) #6
  %.not = icmp eq i32 %5, 0
  br i1 %.not, label %47, label %6

6:                                                ; preds = %3
  %7 = getelementptr inbounds nuw i8, ptr %4, i64 8
  %8 = load i64, ptr %7, align 8, !tbaa !43
  %9 = load ptr, ptr getelementptr inbounds nuw (i8, ptr @_globals, i64 8), align 8, !tbaa !20
  %10 = call i32 @PyThread_acquire_lock(ptr noundef %9, i32 noundef 1) #6
  %11 = load ptr, ptr getelementptr inbounds nuw (i8, ptr @_globals, i64 16), align 8, !tbaa !39
  %.not12.i.i.i = icmp eq ptr %11, null
  br i1 %.not12.i.i.i, label %queue_is_full.exit.thread, label %.lr.ph.i.i.i

.lr.ph.i.i.i:                                     ; preds = %6, %15
  %.014.i.i.i = phi ptr [ %16, %15 ], [ %11, %6 ]
  %12 = getelementptr inbounds nuw i8, ptr %.014.i.i.i, i64 8
  %13 = load i64, ptr %12, align 8, !tbaa !46
  %14 = icmp eq i64 %13, %8
  br i1 %14, label %18, label %15

15:                                               ; preds = %.lr.ph.i.i.i
  %16 = load ptr, ptr %.014.i.i.i, align 8, !tbaa !40
  %.not.i.i.i = icmp eq ptr %16, null
  br i1 %.not.i.i.i, label %queue_is_full.exit.thread, label %.lr.ph.i.i.i, !llvm.loop !62

queue_is_full.exit.thread:                        ; preds = %15, %6
  %17 = load ptr, ptr getelementptr inbounds nuw (i8, ptr @_globals, i64 8), align 8, !tbaa !20
  call void @PyThread_release_lock(ptr noundef %17) #6
  br label %queue_is_full.exit

18:                                               ; preds = %.lr.ph.i.i.i
  %19 = getelementptr inbounds nuw i8, ptr %.014.i.i.i, i64 24
  %20 = load ptr, ptr %19, align 8, !tbaa !49
  %21 = load i64, ptr %20, align 8, !tbaa !63
  %22 = add i64 %21, 1
  store i64 %22, ptr %20, align 8, !tbaa !63
  %23 = load ptr, ptr getelementptr inbounds nuw (i8, ptr @_globals, i64 8), align 8, !tbaa !20
  call void @PyThread_release_lock(ptr noundef %23) #6
  %24 = getelementptr inbounds nuw i8, ptr %20, i64 8
  %25 = load ptr, ptr %24, align 8, !tbaa !35
  %26 = call i32 @PyThread_acquire_lock(ptr noundef %25, i32 noundef 1) #6
  %27 = getelementptr inbounds nuw i8, ptr %20, i64 16
  %28 = load i32, ptr %27, align 8, !tbaa !64
  %.not.i.i8.i = icmp eq i32 %28, 0
  br i1 %.not.i.i8.i, label %_queue_is_full.exit.i, label %_queue_lock.exit.i.i

_queue_lock.exit.i.i:                             ; preds = %18
  %29 = getelementptr inbounds nuw i8, ptr %20, i64 24
  %30 = getelementptr inbounds nuw i8, ptr %20, i64 32
  %31 = load i64, ptr %30, align 8, !tbaa !66
  %32 = load i64, ptr %29, align 8, !tbaa !65
  %33 = icmp ne i64 %31, %32
  %34 = freeze i1 %33
  %35 = select i1 %34, ptr @_Py_FalseStruct, ptr @_Py_TrueStruct
  br label %_queue_is_full.exit.i

_queue_is_full.exit.i:                            ; preds = %_queue_lock.exit.i.i, %18
  %.08 = phi ptr [ @_Py_FalseStruct, %18 ], [ %35, %_queue_lock.exit.i.i ]
  %.0.i9.i = phi i32 [ -14, %18 ], [ 0, %_queue_lock.exit.i.i ]
  %36 = load ptr, ptr %24, align 8, !tbaa !35
  call void @PyThread_release_lock(ptr noundef %36) #6
  %37 = load ptr, ptr getelementptr inbounds nuw (i8, ptr @_globals, i64 8), align 8, !tbaa !20
  %.not.i.i = icmp eq ptr %37, null
  br i1 %.not.i.i, label %42, label %38

38:                                               ; preds = %_queue_is_full.exit.i
  %39 = call i32 @PyThread_acquire_lock(ptr noundef nonnull %37, i32 noundef 1) #6
  %40 = load i64, ptr %20, align 8, !tbaa !63
  %41 = add i64 %40, -1
  store i64 %41, ptr %20, align 8, !tbaa !63
  call void @PyThread_release_lock(ptr noundef nonnull %37) #6
  br label %queue_is_full.exit

42:                                               ; preds = %_queue_is_full.exit.i
  %43 = load i64, ptr %20, align 8, !tbaa !63
  %44 = add i64 %43, -1
  store i64 %44, ptr %20, align 8, !tbaa !63
  br label %queue_is_full.exit

queue_is_full.exit:                               ; preds = %42, %38, %queue_is_full.exit.thread
  %.0.i9.i.sink = phi i32 [ -14, %queue_is_full.exit.thread ], [ %.0.i9.i, %38 ], [ %.0.i9.i, %42 ]
  %45 = phi ptr [ @_Py_FalseStruct, %queue_is_full.exit.thread ], [ %.08, %38 ], [ %.08, %42 ]
  %46 = call fastcc i32 @handle_queue_error(i32 noundef %.0.i9.i.sink, ptr noundef %0, i64 noundef %8)
  %.not615 = icmp eq i32 %46, 0
  %.1 = select i1 %.not615, ptr %45, ptr null
  br label %47

47:                                               ; preds = %3, %queue_is_full.exit
  %.0 = phi ptr [ %.1, %queue_is_full.exit ], [ null, %3 ]
  call void @llvm.lifetime.end.p0(i64 16, ptr nonnull %4) #6
  ret ptr %.0
}